; ModuleID = '5/982.c'
source_filename = "5/982.c"
target datalayout = "e-m:e-p270:32:32-p271:32:32-p272:64:64-i64:64-f80:128-n8:16:32:64-S128"
target triple = "x86_64-pc-linux-gnu"

@.str = private unnamed_addr constant [7 x i8] c"%f%s%s\00", align 1
@.str.1 = private unnamed_addr constant [6 x i8] c"error\00", align 1
@.str.2 = private unnamed_addr constant [4 x i8] c"yes\00", align 1
@.str.3 = private unnamed_addr constant [3 x i8] c"no\00", align 1

; Function Attrs: noinline nounwind uwtable
define dso_local i32 @main() #0 {
  %1 = alloca i32, align 4
  %2 = alloca i32, align 4
  %3 = alloca i32, align 4
  %4 = alloca i32, align 4
  %5 = alloca i32, align 4
  %6 = alloca i32, align 4
  %7 = alloca float, align 4
  %8 = alloca [2 x [100 x i8]], align 16
  store i32 0, i32* %1, align 4
  store i32 0, i32* %4, align 4
  store i32 0, i32* %5, align 4
  %9 = getelementptr inbounds [2 x [100 x i8]], [2 x [100 x i8]]* %8, i64 0, i64 0
  %10 = getelementptr inbounds [100 x i8], [100 x i8]* %9, i64 0, i64 0
  %11 = getelementptr inbounds [2 x [100 x i8]], [2 x [100 x i8]]* %8, i64 0, i64 1
  %12 = getelementptr inbounds [100 x i8], [100 x i8]* %11, i64 0, i64 0
  %13 = call i32 (i8*, ...) @__isoc99_scanf(i8* getelementptr inbounds ([7 x i8], [7 x i8]* @.str, i64 0, i64 0), float* %7, i8* %10, i8* %12)
  %14 = getelementptr inbounds [2 x [100 x i8]], [2 x [100 x i8]]* %8, i64 0, i64 0
  %15 = getelementptr inbounds [100 x i8], [100 x i8]* %14, i64 0, i64 0
  %16 = call i64 @strlen(i8* %15) #3
  %17 = getelementptr inbounds [2 x [100 x i8]], [2 x [100 x i8]]* %8, i64 0, i64 1
  %18 = getelementptr inbounds [100 x i8], [100 x i8]* %17, i64 0, i64 0
  %19 = call i64 @strlen(i8* %18) #3
  %20 = icmp ne i64 %16, %19
  br i1 %20, label %21, label %22

21:                                               ; preds = %0
  store i32 1, i32* %5, align 4
  br label %119

22:                                               ; preds = %0
  %23 = getelementptr inbounds [2 x [100 x i8]], [2 x [100 x i8]]* %8, i64 0, i64 0
  %24 = getelementptr inbounds [100 x i8], [100 x i8]* %23, i64 0, i64 0
  %25 = call i64 @strlen(i8* %24) #3
  %26 = trunc i64 %25 to i32
  store i32 %26, i32* %6, align 4
  store i32 0, i32* %2, align 4
  br label %27

27:                                               ; preds = %115, %22
  %28 = load i32, i32* %2, align 4
  %29 = load i32, i32* %6, align 4
  %30 = icmp slt i32 %28, %29
  br i1 %30, label %31, label %118

31:                                               ; preds = %27
  %32 = getelementptr inbounds [2 x [100 x i8]], [2 x [100 x i8]]* %8, i64 0, i64 0
  %33 = load i32, i32* %2, align 4
  %34 = sext i32 %33 to i64
  %35 = getelementptr inbounds [100 x i8], [100 x i8]* %32, i64 0, i64 %34
  %36 = load i8, i8* %35, align 1
  %37 = sext i8 %36 to i32
  %38 = icmp ne i32 %37, 65
  br i1 %38, label %39, label %63

39:                                               ; preds = %31
  %40 = getelementptr inbounds [2 x [100 x i8]], [2 x [100 x i8]]* %8, i64 0, i64 0
  %41 = load i32, i32* %2, align 4
  %42 = sext i32 %41 to i64
  %43 = getelementptr inbounds [100 x i8], [100 x i8]* %40, i64 0, i64 %42
  %44 = load i8, i8* %43, align 1
  %45 = sext i8 %44 to i32
  %46 = icmp ne i32 %45, 84
  br i1 %46, label %47, label %63

47:                                               ; preds = %39
  %48 = getelementptr inbounds [2 x [100 x i8]], [2 x [100 x i8]]* %8, i64 0, i64 0
  %49 = load i32, i32* %2, align 4
  %50 = sext i32 %49 to i64
  %51 = getelementptr inbounds [100 x i8], [100 x i8]* %48, i64 0, i64 %50
  %52 = load i8, i8* %51, align 1
  %53 = sext i8 %52 to i32
  %54 = icmp ne i32 %53, 67
  br i1 %54, label %55, label %63

55:                                               ; preds = %47
  %56 = getelementptr inbounds [2 x [100 x i8]], [2 x [100 x i8]]* %8, i64 0, i64 0
  %57 = load i32, i32* %2, align 4
  %58 = sext i32 %57 to i64
  %59 = getelementptr inbounds [100 x i8], [100 x i8]* %56, i64 0, i64 %58
  %60 = load i8, i8* %59, align 1
  %61 = sext i8 %60 to i32
  %62 = icmp ne i32 %61, 71
  br i1 %62, label %95, label %63

63:                                               ; preds = %55, %47, %39, %31
  %64 = getelementptr inbounds [2 x [100 x i8]], [2 x [100 x i8]]* %8, i64 0, i64 1
  %65 = load i32, i32* %2, align 4
  %66 = sext i32 %65 to i64
  %67 = getelementptr inbounds [100 x i8], [100 x i8]* %64, i64 0, i64 %66
  %68 = load i8, i8* %67, align 1
  %69 = sext i8 %68 to i32
  %70 = icmp ne i32 %69, 65
  br i1 %70, label %71, label %96

71:                                               ; preds = %63
  %72 = getelementptr inbounds [2 x [100 x i8]], [2 x [100 x i8]]* %8, i64 0, i64 1
  %73 = load i32, i32* %2, align 4
  %74 = sext i32 %73 to i64
  %75 = getelementptr inbounds [100 x i8], [100 x i8]* %72, i64 0, i64 %74
  %76 = load i8, i8* %75, align 1
  %77 = sext i8 %76 to i32
  %78 = icmp ne i32 %77, 84
  br i1 %78, label %79, label %96

79:                                               ; preds = %71
  %80 = getelementptr inbounds [2 x [100 x i8]], [2 x [100 x i8]]* %8, i64 0, i64 1
  %81 = load i32, i32* %2, align 4
  %82 = sext i32 %81 to i64
  %83 = getelementptr inbounds [100 x i8], [100 x i8]* %80, i64 0, i64 %82
  %84 = load i8, i8* %83, align 1
  %85 = sext i8 %84 to i32
  %86 = icmp ne i32 %85, 67
  br i1 %86, label %87, label %96

87:                                               ; preds = %79
  %88 = getelementptr inbounds [2 x [100 x i8]], [2 x [100 x i8]]* %8, i64 0, i64 1
  %89 = load i32, i32* %2, align 4
  %90 = sext i32 %89 to i64
  %91 = getelementptr inbounds [100 x i8], [100 x i8]* %88, i64 0, i64 %90
  %92 = load i8, i8* %91, align 1
  %93 = sext i8 %92 to i32
  %94 = icmp ne i32 %93, 71
  br i1 %94, label %95, label %96

95:                                               ; preds = %87, %55
  store i32 1, i32* %5, align 4
  br label %118

96:                                               ; preds = %87, %79, %71, %63
  %97 = getelementptr inbounds [2 x [100 x i8]], [2 x [100 x i8]]* %8, i64 0, i64 0
  %98 = load i32, i32* %2, align 4
  %99 = sext i32 %98 to i64
  %100 = getelementptr inbounds [100 x i8], [100 x i8]* %97, i64 0, i64 %99
  %101 = load i8, i8* %100, align 1
  %102 = sext i8 %101 to i32
  %103 = getelementptr inbounds [2 x [100 x i8]], [2 x [100 x i8]]* %8, i64 0, i64 1
  %104 = load i32, i32* %2, align 4
  %105 = sext i32 %104 to i64
  %106 = getelementptr inbounds [100 x i8], [100 x i8]* %103, i64 0, i64 %105
  %107 = load i8, i8* %106, align 1
  %108 = sext i8 %107 to i32
  %109 = icmp eq i32 %102, %108
  br i1 %109, label %110, label %113

110:                                              ; preds = %96
  %111 = load i32, i32* %4, align 4
  %112 = add nsw i32 %111, 1
  store i32 %112, i32* %4, align 4
  br label %113

113:                                              ; preds = %110, %96
  br label %114

114:                                              ; preds = %113
  br label %115

115:                                              ; preds = %114
  %116 = load i32, i32* %2, align 4
  %117 = add nsw i32 %116, 1
  store i32 %117, i32* %2, align 4
  br label %27

118:                                              ; preds = %95, %27
  br label %119

119:                                              ; preds = %118, %21
  %120 = load i32, i32* %5, align 4
  %121 = icmp eq i32 %120, 1
  br i1 %121, label %122, label %124

122:                                              ; preds = %119
  %123 = call i32 (i8*, ...) @printf(i8* getelementptr inbounds ([6 x i8], [6 x i8]* @.str.1, i64 0, i64 0))
  br label %139

124:                                              ; preds = %119
  %125 = load i32, i32* %4, align 4
  %126 = sitofp i32 %125 to float
  %127 = getelementptr inbounds [2 x [100 x i8]], [2 x [100 x i8]]* %8, i64 0, i64 1
  %128 = getelementptr inbounds [100 x i8], [100 x i8]* %127, i64 0, i64 0
  %129 = call i64 @strlen(i8* %128) #3
  %130 = uitofp i64 %129 to float
  %131 = fdiv float %126, %130
  %132 = load float, float* %7, align 4
  %133 = fcmp oge float %131, %132
  br i1 %133, label %134, label %136

134:                                              ; preds = %124
  %135 = call i32 (i8*, ...) @printf(i8* getelementptr inbounds ([4 x i8], [4 x i8]* @.str.2, i64 0, i64 0))
  br label %138

136:                                              ; preds = %124
  %137 = call i32 (i8*, ...) @printf(i8* getelementptr inbounds ([3 x i8], [3 x i8]* @.str.3, i64 0, i64 0))
  br label %138

138:                                              ; preds = %136, %134
  br label %139

139:                                              ; preds = %138, %122
  ret i32 0
}

declare dso_local i32 @__isoc99_scanf(i8*, ...) #1

; Function Attrs: nounwind readonly
declare dso_local i64 @strlen(i8*) #2

declare dso_local i32 @printf(i8*, ...) #1


!llvm.module.flags = !{!0}
!llvm.ident = !{!1}

!0 = !{i32 1, !"wchar_size", i32 4}
!1 = !{!"clang version 10.0.0-4ubuntu1 "}
